
build/fw_test.elf:     file format elf64-littleriscv


Disassembly of section .text:

0000000080000000 <_prog_start>:
    80000000:	00800913          	li	s2,8
    80000004:	30491073          	csrw	mie,s2
    80000008:	00000493          	li	s1,0
    8000000c:	f1402973          	csrr	s2,mhartid
    80000010:	03249863          	bne	s1,s2,80000040 <_prog_start+0x40>
    80000014:	00090137          	lui	sp,0x90
    80000018:	fff1011b          	addiw	sp,sp,-1
    8000001c:	00c11113          	slli	sp,sp,0xc
    80000020:	074000ef          	jal	ra,80000094 <main>
    80000024:	020004b7          	lui	s1,0x2000
    80000028:	00100913          	li	s2,1
    8000002c:	0124a023          	sw	s2,0(s1) # 2000000 <_prog_start-0x7e000000>
    80000030:	00448493          	addi	s1,s1,4
    80000034:	02000937          	lui	s2,0x2000
    80000038:	0809091b          	addiw	s2,s2,128
    8000003c:	ff24c6e3          	blt	s1,s2,80000028 <_prog_start+0x28>
    80000040:	10500073          	wfi
    80000044:	34402973          	csrr	s2,mip
    80000048:	00897913          	andi	s2,s2,8
    8000004c:	fe090ae3          	beqz	s2,80000040 <_prog_start+0x40>
    80000050:	020004b7          	lui	s1,0x2000
    80000054:	f1402973          	csrr	s2,mhartid
    80000058:	00291913          	slli	s2,s2,0x2
    8000005c:	00990933          	add	s2,s2,s1
    80000060:	00092023          	sw	zero,0(s2) # 2000000 <_prog_start-0x7e000000>
    80000064:	0004a903          	lw	s2,0(s1) # 2000000 <_prog_start-0x7e000000>
    80000068:	fe091ee3          	bnez	s2,80000064 <_prog_start+0x64>
    8000006c:	00448493          	addi	s1,s1,4
    80000070:	02000937          	lui	s2,0x2000
    80000074:	0809091b          	addiw	s2,s2,128
    80000078:	ff24c6e3          	blt	s1,s2,80000064 <_prog_start+0x64>
    8000007c:	f1402573          	csrr	a0,mhartid
    80000080:	00000597          	auipc	a1,0x0
    80000084:	74058593          	addi	a1,a1,1856 # 800007c0 <dtb>
    80000088:	0010049b          	addiw	s1,zero,1
    8000008c:	01f49493          	slli	s1,s1,0x1f
    80000090:	00048067          	jr	s1

0000000080000094 <main>:
    80000094:	1101                	addi	sp,sp,-32
    80000096:	ec22                	sd	s0,24(sp)
    80000098:	1000                	addi	s0,sp,32
    8000009a:	00000797          	auipc	a5,0x0
    8000009e:	56e78793          	addi	a5,a5,1390 # 80000608 <uart+0x8>
    800000a2:	0007a787          	flw	fa5,0(a5)
    800000a6:	fef42627          	fsw	fa5,-20(s0)
    800000aa:	00000797          	auipc	a5,0x0
    800000ae:	56278793          	addi	a5,a5,1378 # 8000060c <uart+0xc>
    800000b2:	0007a787          	flw	fa5,0(a5)
    800000b6:	fef42227          	fsw	fa5,-28(s0)
    800000ba:	fe042423          	sw	zero,-24(s0)
    800000be:	a015                	j	800000e2 <main+0x4e>
    800000c0:	fec42707          	flw	fa4,-20(s0)
    800000c4:	fe442787          	flw	fa5,-28(s0)
    800000c8:	10f777d3          	fmul.s	fa5,fa4,fa5
    800000cc:	fec42707          	flw	fa4,-20(s0)
    800000d0:	00f777d3          	fadd.s	fa5,fa4,fa5
    800000d4:	fef42627          	fsw	fa5,-20(s0)
    800000d8:	fe842783          	lw	a5,-24(s0)
    800000dc:	2785                	addiw	a5,a5,1
    800000de:	fef42423          	sw	a5,-24(s0)
    800000e2:	fe842783          	lw	a5,-24(s0)
    800000e6:	0007871b          	sext.w	a4,a5
    800000ea:	4791                	li	a5,4
    800000ec:	fce7dae3          	bge	a5,a4,800000c0 <main+0x2c>
    800000f0:	fec42787          	flw	fa5,-20(s0)
    800000f4:	c00797d3          	fcvt.w.s	a5,fa5,rtz
    800000f8:	2781                	sext.w	a5,a5
    800000fa:	853e                	mv	a0,a5
    800000fc:	6462                	ld	s0,24(sp)
    800000fe:	6105                	addi	sp,sp,32
    80000100:	8082                	ret

0000000080000102 <kputc>:
    80000102:	7179                	addi	sp,sp,-48
    80000104:	f422                	sd	s0,40(sp)
    80000106:	1800                	addi	s0,sp,48
    80000108:	87aa                	mv	a5,a0
    8000010a:	fcf40fa3          	sb	a5,-33(s0)
    8000010e:	640007b7          	lui	a5,0x64000
    80000112:	fef43423          	sd	a5,-24(s0)
    80000116:	fe843683          	ld	a3,-24(s0)
    8000011a:	fdf44783          	lbu	a5,-33(s0)
    8000011e:	fe843703          	ld	a4,-24(s0)
    80000122:	40f6a7af          	amoor.w	a5,a5,(a3)
    80000126:	fef42223          	sw	a5,-28(s0)
    8000012a:	fe442783          	lw	a5,-28(s0)
    8000012e:	2781                	sext.w	a5,a5
    80000130:	fe07c3e3          	bltz	a5,80000116 <kputc+0x14>
    80000134:	0001                	nop
    80000136:	0001                	nop
    80000138:	7422                	ld	s0,40(sp)
    8000013a:	6145                	addi	sp,sp,48
    8000013c:	8082                	ret

000000008000013e <kgetc>:
    8000013e:	1101                	addi	sp,sp,-32
    80000140:	ec22                	sd	s0,24(sp)
    80000142:	1000                	addi	s0,sp,32
    80000144:	57fd                	li	a5,-1
    80000146:	fef42623          	sw	a5,-20(s0)
    8000014a:	640007b7          	lui	a5,0x64000
    8000014e:	0791                	addi	a5,a5,4
    80000150:	fef43023          	sd	a5,-32(s0)
    80000154:	a039                	j	80000162 <kgetc+0x24>
    80000156:	fe043783          	ld	a5,-32(s0)
    8000015a:	439c                	lw	a5,0(a5)
    8000015c:	2781                	sext.w	a5,a5
    8000015e:	fef42623          	sw	a5,-20(s0)
    80000162:	fec42783          	lw	a5,-20(s0)
    80000166:	2781                	sext.w	a5,a5
    80000168:	fe07c7e3          	bltz	a5,80000156 <kgetc+0x18>
    8000016c:	fec42783          	lw	a5,-20(s0)
    80000170:	0ff7f793          	andi	a5,a5,255
    80000174:	853e                	mv	a0,a5
    80000176:	6462                	ld	s0,24(sp)
    80000178:	6105                	addi	sp,sp,32
    8000017a:	8082                	ret

000000008000017c <_kputs>:
    8000017c:	7179                	addi	sp,sp,-48
    8000017e:	f406                	sd	ra,40(sp)
    80000180:	f022                	sd	s0,32(sp)
    80000182:	1800                	addi	s0,sp,48
    80000184:	fca43c23          	sd	a0,-40(s0)
    80000188:	a819                	j	8000019e <_kputs+0x22>
    8000018a:	fef44783          	lbu	a5,-17(s0)
    8000018e:	853e                	mv	a0,a5
    80000190:	f73ff0ef          	jal	ra,80000102 <kputc>
    80000194:	fd843783          	ld	a5,-40(s0)
    80000198:	0785                	addi	a5,a5,1
    8000019a:	fcf43c23          	sd	a5,-40(s0)
    8000019e:	fd843783          	ld	a5,-40(s0)
    800001a2:	0007c783          	lbu	a5,0(a5) # 64000000 <_prog_start-0x1c000000>
    800001a6:	fef407a3          	sb	a5,-17(s0)
    800001aa:	fef44783          	lbu	a5,-17(s0)
    800001ae:	0ff7f793          	andi	a5,a5,255
    800001b2:	ffe1                	bnez	a5,8000018a <_kputs+0xe>
    800001b4:	0001                	nop
    800001b6:	0001                	nop
    800001b8:	70a2                	ld	ra,40(sp)
    800001ba:	7402                	ld	s0,32(sp)
    800001bc:	6145                	addi	sp,sp,48
    800001be:	8082                	ret

00000000800001c0 <_kgets>:
    800001c0:	1101                	addi	sp,sp,-32
    800001c2:	ec06                	sd	ra,24(sp)
    800001c4:	e822                	sd	s0,16(sp)
    800001c6:	1000                	addi	s0,sp,32
    800001c8:	fea43423          	sd	a0,-24(s0)
    800001cc:	a031                	j	800001d8 <_kgets+0x18>
    800001ce:	fe843783          	ld	a5,-24(s0)
    800001d2:	0785                	addi	a5,a5,1
    800001d4:	fef43423          	sd	a5,-24(s0)
    800001d8:	f67ff0ef          	jal	ra,8000013e <kgetc>
    800001dc:	87aa                	mv	a5,a0
    800001de:	873e                	mv	a4,a5
    800001e0:	fe843783          	ld	a5,-24(s0)
    800001e4:	00e78023          	sb	a4,0(a5)
    800001e8:	fe843783          	ld	a5,-24(s0)
    800001ec:	0007c783          	lbu	a5,0(a5)
    800001f0:	873e                	mv	a4,a5
    800001f2:	47a9                	li	a5,10
    800001f4:	fcf71de3          	bne	a4,a5,800001ce <_kgets+0xe>
    800001f8:	fe843783          	ld	a5,-24(s0)
    800001fc:	00078023          	sb	zero,0(a5)
    80000200:	0001                	nop
    80000202:	60e2                	ld	ra,24(sp)
    80000204:	6442                	ld	s0,16(sp)
    80000206:	6105                	addi	sp,sp,32
    80000208:	8082                	ret

000000008000020a <kread>:
    8000020a:	7139                	addi	sp,sp,-64
    8000020c:	fc06                	sd	ra,56(sp)
    8000020e:	f822                	sd	s0,48(sp)
    80000210:	f426                	sd	s1,40(sp)
    80000212:	0080                	addi	s0,sp,64
    80000214:	fca43423          	sd	a0,-56(s0)
    80000218:	87ae                	mv	a5,a1
    8000021a:	fcf42223          	sw	a5,-60(s0)
    8000021e:	fc843783          	ld	a5,-56(s0)
    80000222:	fcf43c23          	sd	a5,-40(s0)
    80000226:	fc042a23          	sw	zero,-44(s0)
    8000022a:	a00d                	j	8000024c <kread+0x42>
    8000022c:	fd843483          	ld	s1,-40(s0)
    80000230:	00148793          	addi	a5,s1,1
    80000234:	fcf43c23          	sd	a5,-40(s0)
    80000238:	f07ff0ef          	jal	ra,8000013e <kgetc>
    8000023c:	87aa                	mv	a5,a0
    8000023e:	00f48023          	sb	a5,0(s1)
    80000242:	fd442783          	lw	a5,-44(s0)
    80000246:	2785                	addiw	a5,a5,1
    80000248:	fcf42a23          	sw	a5,-44(s0)
    8000024c:	fd442703          	lw	a4,-44(s0)
    80000250:	fc442783          	lw	a5,-60(s0)
    80000254:	2701                	sext.w	a4,a4
    80000256:	2781                	sext.w	a5,a5
    80000258:	fcf74ae3          	blt	a4,a5,8000022c <kread+0x22>
    8000025c:	0001                	nop
    8000025e:	0001                	nop
    80000260:	70e2                	ld	ra,56(sp)
    80000262:	7442                	ld	s0,48(sp)
    80000264:	74a2                	ld	s1,40(sp)
    80000266:	6121                	addi	sp,sp,64
    80000268:	8082                	ret

000000008000026a <kwrite>:
    8000026a:	7179                	addi	sp,sp,-48
    8000026c:	f406                	sd	ra,40(sp)
    8000026e:	f022                	sd	s0,32(sp)
    80000270:	1800                	addi	s0,sp,48
    80000272:	fca43c23          	sd	a0,-40(s0)
    80000276:	87ae                	mv	a5,a1
    80000278:	fcf42a23          	sw	a5,-44(s0)
    8000027c:	fd843783          	ld	a5,-40(s0)
    80000280:	fef43423          	sd	a5,-24(s0)
    80000284:	fe042223          	sw	zero,-28(s0)
    80000288:	a00d                	j	800002aa <kwrite+0x40>
    8000028a:	fe843783          	ld	a5,-24(s0)
    8000028e:	00178713          	addi	a4,a5,1
    80000292:	fee43423          	sd	a4,-24(s0)
    80000296:	0007c783          	lbu	a5,0(a5)
    8000029a:	853e                	mv	a0,a5
    8000029c:	e67ff0ef          	jal	ra,80000102 <kputc>
    800002a0:	fe442783          	lw	a5,-28(s0)
    800002a4:	2785                	addiw	a5,a5,1
    800002a6:	fef42223          	sw	a5,-28(s0)
    800002aa:	fe442703          	lw	a4,-28(s0)
    800002ae:	fd442783          	lw	a5,-44(s0)
    800002b2:	2701                	sext.w	a4,a4
    800002b4:	2781                	sext.w	a5,a5
    800002b6:	fcf74ae3          	blt	a4,a5,8000028a <kwrite+0x20>
    800002ba:	0001                	nop
    800002bc:	0001                	nop
    800002be:	70a2                	ld	ra,40(sp)
    800002c0:	7402                	ld	s0,32(sp)
    800002c2:	6145                	addi	sp,sp,48
    800002c4:	8082                	ret

00000000800002c6 <kputs>:
    800002c6:	1101                	addi	sp,sp,-32
    800002c8:	ec06                	sd	ra,24(sp)
    800002ca:	e822                	sd	s0,16(sp)
    800002cc:	1000                	addi	s0,sp,32
    800002ce:	fea43423          	sd	a0,-24(s0)
    800002d2:	fe843503          	ld	a0,-24(s0)
    800002d6:	ea7ff0ef          	jal	ra,8000017c <_kputs>
    800002da:	4529                	li	a0,10
    800002dc:	e27ff0ef          	jal	ra,80000102 <kputc>
    800002e0:	0001                	nop
    800002e2:	60e2                	ld	ra,24(sp)
    800002e4:	6442                	ld	s0,16(sp)
    800002e6:	6105                	addi	sp,sp,32
    800002e8:	8082                	ret

00000000800002ea <kgets>:
    800002ea:	1101                	addi	sp,sp,-32
    800002ec:	ec06                	sd	ra,24(sp)
    800002ee:	e822                	sd	s0,16(sp)
    800002f0:	1000                	addi	s0,sp,32
    800002f2:	fea43423          	sd	a0,-24(s0)
    800002f6:	fe843503          	ld	a0,-24(s0)
    800002fa:	ec7ff0ef          	jal	ra,800001c0 <_kgets>
    800002fe:	0001                	nop
    80000300:	60e2                	ld	ra,24(sp)
    80000302:	6442                	ld	s0,16(sp)
    80000304:	6105                	addi	sp,sp,32
    80000306:	8082                	ret

0000000080000308 <_escape_char>:
    80000308:	1101                	addi	sp,sp,-32
    8000030a:	ec06                	sd	ra,24(sp)
    8000030c:	e822                	sd	s0,16(sp)
    8000030e:	1000                	addi	s0,sp,32
    80000310:	87aa                	mv	a5,a0
    80000312:	fef407a3          	sb	a5,-17(s0)
    80000316:	fef44783          	lbu	a5,-17(s0)
    8000031a:	2781                	sext.w	a5,a5
    8000031c:	fde7869b          	addiw	a3,a5,-34
    80000320:	0006871b          	sext.w	a4,a3
    80000324:	05400793          	li	a5,84
    80000328:	08e7e863          	bltu	a5,a4,800003b8 <_escape_char+0xb0>
    8000032c:	02069793          	slli	a5,a3,0x20
    80000330:	9381                	srli	a5,a5,0x20
    80000332:	00279713          	slli	a4,a5,0x2
    80000336:	00000797          	auipc	a5,0x0
    8000033a:	2da78793          	addi	a5,a5,730 # 80000610 <uart+0x10>
    8000033e:	97ba                	add	a5,a5,a4
    80000340:	439c                	lw	a5,0(a5)
    80000342:	0007871b          	sext.w	a4,a5
    80000346:	00000797          	auipc	a5,0x0
    8000034a:	2ca78793          	addi	a5,a5,714 # 80000610 <uart+0x10>
    8000034e:	97ba                	add	a5,a5,a4
    80000350:	8782                	jr	a5
    80000352:	4529                	li	a0,10
    80000354:	dafff0ef          	jal	ra,80000102 <kputc>
    80000358:	a08d                	j	800003ba <_escape_char+0xb2>
    8000035a:	4529                	li	a0,10
    8000035c:	da7ff0ef          	jal	ra,80000102 <kputc>
    80000360:	a8a9                	j	800003ba <_escape_char+0xb2>
    80000362:	4529                	li	a0,10
    80000364:	d9fff0ef          	jal	ra,80000102 <kputc>
    80000368:	a889                	j	800003ba <_escape_char+0xb2>
    8000036a:	4529                	li	a0,10
    8000036c:	d97ff0ef          	jal	ra,80000102 <kputc>
    80000370:	a0a9                	j	800003ba <_escape_char+0xb2>
    80000372:	4529                	li	a0,10
    80000374:	d8fff0ef          	jal	ra,80000102 <kputc>
    80000378:	a089                	j	800003ba <_escape_char+0xb2>
    8000037a:	4529                	li	a0,10
    8000037c:	d87ff0ef          	jal	ra,80000102 <kputc>
    80000380:	a82d                	j	800003ba <_escape_char+0xb2>
    80000382:	4529                	li	a0,10
    80000384:	d7fff0ef          	jal	ra,80000102 <kputc>
    80000388:	a80d                	j	800003ba <_escape_char+0xb2>
    8000038a:	4529                	li	a0,10
    8000038c:	d77ff0ef          	jal	ra,80000102 <kputc>
    80000390:	a02d                	j	800003ba <_escape_char+0xb2>
    80000392:	02700513          	li	a0,39
    80000396:	d6dff0ef          	jal	ra,80000102 <kputc>
    8000039a:	a005                	j	800003ba <_escape_char+0xb2>
    8000039c:	02200513          	li	a0,34
    800003a0:	d63ff0ef          	jal	ra,80000102 <kputc>
    800003a4:	a819                	j	800003ba <_escape_char+0xb2>
    800003a6:	03f00513          	li	a0,63
    800003aa:	d59ff0ef          	jal	ra,80000102 <kputc>
    800003ae:	a031                	j	800003ba <_escape_char+0xb2>
    800003b0:	4501                	li	a0,0
    800003b2:	d51ff0ef          	jal	ra,80000102 <kputc>
    800003b6:	a011                	j	800003ba <_escape_char+0xb2>
    800003b8:	0001                	nop
    800003ba:	0001                	nop
    800003bc:	60e2                	ld	ra,24(sp)
    800003be:	6442                	ld	s0,16(sp)
    800003c0:	6105                	addi	sp,sp,32
    800003c2:	8082                	ret

00000000800003c4 <kprintf>:
    800003c4:	7175                	addi	sp,sp,-144
    800003c6:	e486                	sd	ra,72(sp)
    800003c8:	e0a2                	sd	s0,64(sp)
    800003ca:	0880                	addi	s0,sp,80
    800003cc:	faa43c23          	sd	a0,-72(s0)
    800003d0:	e40c                	sd	a1,8(s0)
    800003d2:	e810                	sd	a2,16(s0)
    800003d4:	ec14                	sd	a3,24(s0)
    800003d6:	f018                	sd	a4,32(s0)
    800003d8:	f41c                	sd	a5,40(s0)
    800003da:	03043823          	sd	a6,48(s0)
    800003de:	03143c23          	sd	a7,56(s0)
    800003e2:	04040793          	addi	a5,s0,64
    800003e6:	faf43823          	sd	a5,-80(s0)
    800003ea:	fb043783          	ld	a5,-80(s0)
    800003ee:	fc878793          	addi	a5,a5,-56
    800003f2:	fcf43023          	sd	a5,-64(s0)
    800003f6:	fe0407a3          	sb	zero,-17(s0)
    800003fa:	fe040723          	sb	zero,-18(s0)
    800003fe:	fe0406a3          	sb	zero,-19(s0)
    80000402:	a279                	j	80000590 <kprintf+0x1cc>
    80000404:	fef44783          	lbu	a5,-17(s0)
    80000408:	0ff7f793          	andi	a5,a5,255
    8000040c:	12078d63          	beqz	a5,80000546 <kprintf+0x182>
    80000410:	fd744783          	lbu	a5,-41(s0)
    80000414:	2781                	sext.w	a5,a5
    80000416:	f9d7869b          	addiw	a3,a5,-99
    8000041a:	0006871b          	sext.w	a4,a3
    8000041e:	47d5                	li	a5,21
    80000420:	10e7ec63          	bltu	a5,a4,80000538 <kprintf+0x174>
    80000424:	02069793          	slli	a5,a3,0x20
    80000428:	9381                	srli	a5,a5,0x20
    8000042a:	00279713          	slli	a4,a5,0x2
    8000042e:	00000797          	auipc	a5,0x0
    80000432:	33678793          	addi	a5,a5,822 # 80000764 <uart+0x164>
    80000436:	97ba                	add	a5,a5,a4
    80000438:	439c                	lw	a5,0(a5)
    8000043a:	0007871b          	sext.w	a4,a5
    8000043e:	00000797          	auipc	a5,0x0
    80000442:	32678793          	addi	a5,a5,806 # 80000764 <uart+0x164>
    80000446:	97ba                	add	a5,a5,a4
    80000448:	8782                	jr	a5
    8000044a:	4785                	li	a5,1
    8000044c:	fef40723          	sb	a5,-18(s0)
    80000450:	a281                	j	80000590 <kprintf+0x1cc>
    80000452:	4785                	li	a5,1
    80000454:	fef406a3          	sb	a5,-19(s0)
    80000458:	aa25                	j	80000590 <kprintf+0x1cc>
    8000045a:	fee44783          	lbu	a5,-18(s0)
    8000045e:	0ff7f793          	andi	a5,a5,255
    80000462:	cf99                	beqz	a5,80000480 <kprintf+0xbc>
    80000464:	fc043783          	ld	a5,-64(s0)
    80000468:	00878713          	addi	a4,a5,8
    8000046c:	fce43023          	sd	a4,-64(s0)
    80000470:	639c                	ld	a5,0(a5)
    80000472:	fef43023          	sd	a5,-32(s0)
    80000476:	03c00793          	li	a5,60
    8000047a:	fcf43c23          	sd	a5,-40(s0)
    8000047e:	a041                	j	800004fe <kprintf+0x13a>
    80000480:	fc043783          	ld	a5,-64(s0)
    80000484:	00878713          	addi	a4,a5,8
    80000488:	fce43023          	sd	a4,-64(s0)
    8000048c:	439c                	lw	a5,0(a5)
    8000048e:	1782                	slli	a5,a5,0x20
    80000490:	9381                	srli	a5,a5,0x20
    80000492:	fef43023          	sd	a5,-32(s0)
    80000496:	fed44783          	lbu	a5,-19(s0)
    8000049a:	0ff7f793          	andi	a5,a5,255
    8000049e:	c399                	beqz	a5,800004a4 <kprintf+0xe0>
    800004a0:	4791                	li	a5,4
    800004a2:	a011                	j	800004a6 <kprintf+0xe2>
    800004a4:	47f1                	li	a5,28
    800004a6:	fcf43c23          	sd	a5,-40(s0)
    800004aa:	a891                	j	800004fe <kprintf+0x13a>
    800004ac:	fd843783          	ld	a5,-40(s0)
    800004b0:	2781                	sext.w	a5,a5
    800004b2:	873e                	mv	a4,a5
    800004b4:	fe043783          	ld	a5,-32(s0)
    800004b8:	00e7d7b3          	srl	a5,a5,a4
    800004bc:	8bbd                	andi	a5,a5,15
    800004be:	fcf43423          	sd	a5,-56(s0)
    800004c2:	fc843703          	ld	a4,-56(s0)
    800004c6:	47a5                	li	a5,9
    800004c8:	00e7cb63          	blt	a5,a4,800004de <kprintf+0x11a>
    800004cc:	fc843783          	ld	a5,-56(s0)
    800004d0:	0ff7f793          	andi	a5,a5,255
    800004d4:	0307879b          	addiw	a5,a5,48
    800004d8:	0ff7f793          	andi	a5,a5,255
    800004dc:	a809                	j	800004ee <kprintf+0x12a>
    800004de:	fc843783          	ld	a5,-56(s0)
    800004e2:	0ff7f793          	andi	a5,a5,255
    800004e6:	0577879b          	addiw	a5,a5,87
    800004ea:	0ff7f793          	andi	a5,a5,255
    800004ee:	853e                	mv	a0,a5
    800004f0:	c13ff0ef          	jal	ra,80000102 <kputc>
    800004f4:	fd843783          	ld	a5,-40(s0)
    800004f8:	17f1                	addi	a5,a5,-4
    800004fa:	fcf43c23          	sd	a5,-40(s0)
    800004fe:	fd843783          	ld	a5,-40(s0)
    80000502:	fa07d5e3          	bgez	a5,800004ac <kprintf+0xe8>
    80000506:	a80d                	j	80000538 <kprintf+0x174>
    80000508:	fc043783          	ld	a5,-64(s0)
    8000050c:	00878713          	addi	a4,a5,8
    80000510:	fce43023          	sd	a4,-64(s0)
    80000514:	639c                	ld	a5,0(a5)
    80000516:	853e                	mv	a0,a5
    80000518:	c65ff0ef          	jal	ra,8000017c <_kputs>
    8000051c:	a831                	j	80000538 <kprintf+0x174>
    8000051e:	fc043783          	ld	a5,-64(s0)
    80000522:	00878713          	addi	a4,a5,8
    80000526:	fce43023          	sd	a4,-64(s0)
    8000052a:	439c                	lw	a5,0(a5)
    8000052c:	0ff7f793          	andi	a5,a5,255
    80000530:	853e                	mv	a0,a5
    80000532:	bd1ff0ef          	jal	ra,80000102 <kputc>
    80000536:	0001                	nop
    80000538:	fe0407a3          	sb	zero,-17(s0)
    8000053c:	fe040723          	sb	zero,-18(s0)
    80000540:	fe0406a3          	sb	zero,-19(s0)
    80000544:	a0b1                	j	80000590 <kprintf+0x1cc>
    80000546:	fd744783          	lbu	a5,-41(s0)
    8000054a:	0ff7f713          	andi	a4,a5,255
    8000054e:	02500793          	li	a5,37
    80000552:	00f71663          	bne	a4,a5,8000055e <kprintf+0x19a>
    80000556:	4785                	li	a5,1
    80000558:	fef407a3          	sb	a5,-17(s0)
    8000055c:	a815                	j	80000590 <kprintf+0x1cc>
    8000055e:	fd744783          	lbu	a5,-41(s0)
    80000562:	0ff7f713          	andi	a4,a5,255
    80000566:	05c00793          	li	a5,92
    8000056a:	00f71e63          	bne	a4,a5,80000586 <kprintf+0x1c2>
    8000056e:	fb843783          	ld	a5,-72(s0)
    80000572:	00178713          	addi	a4,a5,1
    80000576:	fae43c23          	sd	a4,-72(s0)
    8000057a:	0007c783          	lbu	a5,0(a5)
    8000057e:	853e                	mv	a0,a5
    80000580:	d89ff0ef          	jal	ra,80000308 <_escape_char>
    80000584:	a031                	j	80000590 <kprintf+0x1cc>
    80000586:	fd744783          	lbu	a5,-41(s0)
    8000058a:	853e                	mv	a0,a5
    8000058c:	b77ff0ef          	jal	ra,80000102 <kputc>
    80000590:	fb843783          	ld	a5,-72(s0)
    80000594:	00178713          	addi	a4,a5,1
    80000598:	fae43c23          	sd	a4,-72(s0)
    8000059c:	0007c783          	lbu	a5,0(a5)
    800005a0:	fcf40ba3          	sb	a5,-41(s0)
    800005a4:	fd744783          	lbu	a5,-41(s0)
    800005a8:	0ff7f793          	andi	a5,a5,255
    800005ac:	e4079ce3          	bnez	a5,80000404 <kprintf+0x40>
    800005b0:	0001                	nop
    800005b2:	0001                	nop
    800005b4:	60a6                	ld	ra,72(sp)
    800005b6:	6406                	ld	s0,64(sp)
    800005b8:	6149                	addi	sp,sp,144
    800005ba:	8082                	ret
	...
